; ModuleID = 'bench/git/original/nonblock.ll'
source_filename = "bench/git/original/nonblock.ll"
target datalayout = "e-m:e-p270:32:32-p271:32:32-p272:64:64-i64:64-i128:128-f80:128-n8:16:32:64-S128"
target triple = "x86_64-pc-linux-gnu"

; Function Attrs: nounwind uwtable
define dso_local i32 @enable_pipe_nonblock(i32 noundef %0) local_unnamed_addr #0 {
  %2 = tail call i32 (i32, i32, ...) @fcntl64(i32 noundef %0, i32 noundef 3) #2
  %3 = icmp slt i32 %2, 0
  br i1 %3, label %7, label %4

4:                                                ; preds = %1
  %5 = or i32 %2, 2048
  %6 = tail call i32 (i32, i32, ...) @fcntl64(i32 noundef %0, i32 noundef 4, i32 noundef %5) #2
  br label %7

7:                                                ; preds = %1, %4
  %.0 = phi i32 [ %6, %4 ], [ -1, %1 ]
  ret i32 %.0
}

declare i32 @fcntl64(i32 noundef, i32 noundef, ...) local_unnamed_addr #1


!llvm.module.flags = !{!0, !1, !2, !3}

!0 = !{i32 1, !"wchar_size", i32 4}
!1 = !{i32 8, !"PIC Level", i32 2}
!2 = !{i32 7, !"PIE Level", i32 2}
!3 = !{i32 7, !"uwtable", i32 2}
